target datalayout = "e-m:e-p270:32:32-p271:32:32-p272:64:64-i64:64-i128:128-f80:128-n8:16:32:64-S128"
target triple = "x86_64-pc-linux-gnu"

%struct.Wlc_Ntk_t_ = type { ptr, ptr, %struct.Vec_Int_t_, %struct.Vec_Int_t_, %struct.Vec_Int_t_, %struct.Vec_Int_t_, %struct.Vec_Int_t_, %struct.Vec_Int_t_, ptr, ptr, ptr, [60 x i32], [60 x i32], i32, i32, i32, i32, i32, ptr, i32, i32, ptr, ptr, ptr, ptr, ptr, %struct.Vec_Int_t_, %struct.Vec_Int_t_, i32, %struct.Vec_Int_t_, %struct.Vec_Int_t_, %struct.Vec_Int_t_, %struct.Vec_Int_t_, %struct.Vec_Int_t_, %struct.Vec_Int_t_ }
%struct.Vec_Int_t_ = type { i32, i32, ptr }
%struct.Wlc_Obj_t_ = type { i16, i32, i32, i32, %union.anon }
%union.anon = type { [1 x ptr] }

@.str = private unnamed_addr constant [5 x i8] c"PIs:\00", align 1
@.str.1 = private unnamed_addr constant [4 x i8] c" %s\00", align 1
@.str.2 = private unnamed_addr constant [3 x i8] c"\0A\0A\00", align 1
@.str.3 = private unnamed_addr constant [5 x i8] c"POs:\00", align 1
@.str.4 = private unnamed_addr constant [9 x i8] c"FO(Fi)s:\00", align 1
@.str.5 = private unnamed_addr constant [8 x i8] c" %s(%s)\00", align 1
@.str.6 = private unnamed_addr constant [7 x i8] c"Objs:\0A\00", align 1

; Function Attrs: inlinehint nounwind uwtable
define internal ptr @Wlc_NtkCo(ptr noundef %0, i32 noundef %1) #2 {
  %3 = alloca ptr, align 8
  %4 = alloca i32, align 4
  store ptr %0, ptr %3, align 8, !tbaa !13
  store i32 %1, ptr %4, align 4, !tbaa !15
  %5 = load ptr, ptr %3, align 8, !tbaa !13
  %6 = load ptr, ptr %3, align 8, !tbaa !13
  %7 = getelementptr inbounds nuw %struct.Wlc_Ntk_t_, ptr %6, i32 0, i32 5
  %8 = load i32, ptr %4, align 4, !tbaa !15
  %9 = call i32 @Vec_IntEntry(ptr noundef %7, i32 noundef %8)
  %10 = call ptr @Wlc_NtkObj(ptr noundef %5, i32 noundef %9)
  ret ptr %10
}

; Function Attrs: inlinehint nounwind uwtable
define internal i32 @Wlc_ObjCiId(ptr noundef %0) #2 {
  %2 = alloca ptr, align 8
  store ptr %0, ptr %2, align 8, !tbaa !16
  %3 = load ptr, ptr %2, align 8, !tbaa !16
  %4 = getelementptr inbounds nuw %struct.Wlc_Obj_t_, ptr %3, i32 0, i32 4
  %5 = getelementptr inbounds [2 x i32], ptr %4, i64 0, i64 1
  %6 = load i32, ptr %5, align 4, !tbaa !69
  ret i32 %6
}

; Function Attrs: inlinehint nounwind uwtable
define internal i32 @Vec_IntEntry(ptr noundef %0, i32 noundef %1) #2 {
  %3 = alloca ptr, align 8
  %4 = alloca i32, align 4
  store ptr %0, ptr %3, align 8, !tbaa !39
  store i32 %1, ptr %4, align 4, !tbaa !15
  %5 = load ptr, ptr %3, align 8, !tbaa !39
  %6 = getelementptr inbounds nuw %struct.Vec_Int_t_, ptr %5, i32 0, i32 2
  %7 = load ptr, ptr %6, align 8, !tbaa !43
  %8 = load i32, ptr %4, align 4, !tbaa !15
  %9 = sext i32 %8 to i64
  %10 = getelementptr inbounds i32, ptr %7, i64 %9
  %11 = load i32, ptr %10, align 4, !tbaa !15
  ret i32 %11
}

; Function Attrs: inlinehint nounwind uwtable
define internal i32 @Vec_IntSize(ptr noundef %0) #2 {
  %2 = alloca ptr, align 8
  store ptr %0, ptr %2, align 8, !tbaa !39
  %3 = load ptr, ptr %2, align 8, !tbaa !39
  %4 = getelementptr inbounds nuw %struct.Vec_Int_t_, ptr %3, i32 0, i32 1
  %5 = load i32, ptr %4, align 4, !tbaa !44
  ret i32 %5
}

; Function Attrs: inlinehint nounwind uwtable
define internal i32 @Wlc_ObjIsCi(ptr noundef %0) #2 {
  %2 = alloca ptr, align 8
  store ptr %0, ptr %2, align 8, !tbaa !16
  %3 = load ptr, ptr %2, align 8, !tbaa !16
  %4 = load i16, ptr %3, align 8
  %5 = and i16 %4, 63
  %6 = zext i16 %5 to i32
  %7 = icmp eq i32 %6, 1
  br i1 %7, label %14, label %8

8:                                                ; preds = %1
  %9 = load ptr, ptr %2, align 8, !tbaa !16
  %10 = load i16, ptr %9, align 8
  %11 = and i16 %10, 63
  %12 = zext i16 %11 to i32
  %13 = icmp eq i32 %12, 3
  br label %14

14:                                               ; preds = %8, %1
  %15 = phi i1 [ true, %1 ], [ %13, %8 ]
  %16 = zext i1 %15 to i32
  ret i32 %16
}

; Function Attrs: inlinehint nounwind uwtable
define internal ptr @Wlc_NtkObj(ptr noundef %0, i32 noundef %1) #2 {
  %3 = alloca ptr, align 8
  %4 = alloca i32, align 4
  store ptr %0, ptr %3, align 8, !tbaa !13
  store i32 %1, ptr %4, align 4, !tbaa !15
  %5 = load ptr, ptr %3, align 8, !tbaa !13
  %6 = getelementptr inbounds nuw %struct.Wlc_Ntk_t_, ptr %5, i32 0, i32 18
  %7 = load ptr, ptr %6, align 8, !tbaa !27
  %8 = load i32, ptr %4, align 4, !tbaa !15
  %9 = sext i32 %8 to i64
  %10 = getelementptr inbounds %struct.Wlc_Obj_t_, ptr %7, i64 %9
  ret ptr %10
}

; Function Attrs: inlinehint nounwind uwtable
define internal i32 @Wlc_NtkObjNumMax(ptr noundef %0) #2 {
  %2 = alloca ptr, align 8
  store ptr %0, ptr %2, align 8, !tbaa !13
  %3 = load ptr, ptr %2, align 8, !tbaa !13
  %4 = getelementptr inbounds nuw %struct.Wlc_Ntk_t_, ptr %3, i32 0, i32 19
  %5 = load i32, ptr %4, align 8, !tbaa !36
  ret i32 %5
}

; Function Attrs: inlinehint nounwind uwtable
define internal ptr @Wlc_ObjFo2Fi(ptr noundef %0, ptr noundef %1) #2 {
  %3 = alloca ptr, align 8
  %4 = alloca ptr, align 8
  store ptr %0, ptr %3, align 8, !tbaa !13
  store ptr %1, ptr %4, align 8, !tbaa !16
  %5 = load ptr, ptr %3, align 8, !tbaa !13
  %6 = load ptr, ptr %3, align 8, !tbaa !13
  %7 = call i32 @Wlc_NtkPoNum(ptr noundef %6)
  %8 = load ptr, ptr %4, align 8, !tbaa !16
  %9 = call i32 @Wlc_ObjCiId(ptr noundef %8)
  %10 = add nsw i32 %7, %9
  %11 = load ptr, ptr %3, align 8, !tbaa !13
  %12 = call i32 @Wlc_NtkPiNum(ptr noundef %11)
  %13 = sub nsw i32 %10, %12
  %14 = call ptr @Wlc_NtkCo(ptr noundef %5, i32 noundef %13)
  ret ptr %14
}

; Function Attrs: inlinehint nounwind uwtable
define internal i32 @Wlc_ObjIsPi(ptr noundef %0) #2 {
  %2 = alloca ptr, align 8
  store ptr %0, ptr %2, align 8, !tbaa !16
  %3 = load ptr, ptr %2, align 8, !tbaa !16
  %4 = load i16, ptr %3, align 8
  %5 = and i16 %4, 63
  %6 = zext i16 %5 to i32
  %7 = icmp eq i32 %6, 1
  %8 = zext i1 %7 to i32
  ret i32 %8
}

; Function Attrs: inlinehint nounwind uwtable
define internal ptr @Wlc_NtkCi(ptr noundef %0, i32 noundef %1) #2 {
  %3 = alloca ptr, align 8
  %4 = alloca i32, align 4
  store ptr %0, ptr %3, align 8, !tbaa !13
  store i32 %1, ptr %4, align 4, !tbaa !15
  %5 = load ptr, ptr %3, align 8, !tbaa !13
  %6 = load ptr, ptr %3, align 8, !tbaa !13
  %7 = getelementptr inbounds nuw %struct.Wlc_Ntk_t_, ptr %6, i32 0, i32 4
  %8 = load i32, ptr %4, align 4, !tbaa !15
  %9 = call i32 @Vec_IntEntry(ptr noundef %7, i32 noundef %8)
  %10 = call ptr @Wlc_NtkObj(ptr noundef %5, i32 noundef %9)
  ret ptr %10
}

; Function Attrs: inlinehint nounwind uwtable
define internal i32 @Wlc_NtkCiNum(ptr noundef %0) #2 {
  %2 = alloca ptr, align 8
  store ptr %0, ptr %2, align 8, !tbaa !13
  %3 = load ptr, ptr %2, align 8, !tbaa !13
  %4 = getelementptr inbounds nuw %struct.Wlc_Ntk_t_, ptr %3, i32 0, i32 4
  %5 = call i32 @Vec_IntSize(ptr noundef %4)
  ret i32 %5
}

; Function Attrs: inlinehint nounwind uwtable
define internal ptr @Wlc_NtkPo(ptr noundef %0, i32 noundef %1) #2 {
  %3 = alloca ptr, align 8
  %4 = alloca i32, align 4
  store ptr %0, ptr %3, align 8, !tbaa !13
  store i32 %1, ptr %4, align 4, !tbaa !15
  %5 = load ptr, ptr %3, align 8, !tbaa !13
  %6 = load ptr, ptr %3, align 8, !tbaa !13
  %7 = getelementptr inbounds nuw %struct.Wlc_Ntk_t_, ptr %6, i32 0, i32 3
  %8 = load i32, ptr %4, align 4, !tbaa !15
  %9 = call i32 @Vec_IntEntry(ptr noundef %7, i32 noundef %8)
  %10 = call ptr @Wlc_NtkObj(ptr noundef %5, i32 noundef %9)
  ret ptr %10
}

; Function Attrs: inlinehint nounwind uwtable
define internal i32 @Wlc_NtkPoNum(ptr noundef %0) #2 {
  %2 = alloca ptr, align 8
  store ptr %0, ptr %2, align 8, !tbaa !13
  %3 = load ptr, ptr %2, align 8, !tbaa !13
  %4 = getelementptr inbounds nuw %struct.Wlc_Ntk_t_, ptr %3, i32 0, i32 3
  %5 = call i32 @Vec_IntSize(ptr noundef %4)
  ret i32 %5
}

; Function Attrs: inlinehint nounwind uwtable
define internal i32 @Wlc_ObjId(ptr noundef %0, ptr noundef %1) #2 {
  %3 = alloca ptr, align 8
  %4 = alloca ptr, align 8
  store ptr %0, ptr %3, align 8, !tbaa !13
  store ptr %1, ptr %4, align 8, !tbaa !16
  %5 = load ptr, ptr %4, align 8, !tbaa !16
  %6 = load ptr, ptr %3, align 8, !tbaa !13
  %7 = getelementptr inbounds nuw %struct.Wlc_Ntk_t_, ptr %6, i32 0, i32 18
  %8 = load ptr, ptr %7, align 8, !tbaa !27
  %9 = ptrtoint ptr %5 to i64
  %10 = ptrtoint ptr %8 to i64
  %11 = sub i64 %9, %10
  %12 = sdiv exact i64 %11, 24
  %13 = trunc i64 %12 to i32
  ret i32 %13
}

; Function Attrs: inlinehint nounwind uwtable
define internal ptr @Wlc_NtkPi(ptr noundef %0, i32 noundef %1) #2 {
  %3 = alloca ptr, align 8
  %4 = alloca i32, align 4
  store ptr %0, ptr %3, align 8, !tbaa !13
  store i32 %1, ptr %4, align 4, !tbaa !15
  %5 = load ptr, ptr %3, align 8, !tbaa !13
  %6 = load ptr, ptr %3, align 8, !tbaa !13
  %7 = getelementptr inbounds nuw %struct.Wlc_Ntk_t_, ptr %6, i32 0, i32 2
  %8 = load i32, ptr %4, align 4, !tbaa !15
  %9 = call i32 @Vec_IntEntry(ptr noundef %7, i32 noundef %8)
  %10 = call ptr @Wlc_NtkObj(ptr noundef %5, i32 noundef %9)
  ret ptr %10
}

; Function Attrs: inlinehint nounwind uwtable
define internal i32 @Wlc_NtkPiNum(ptr noundef %0) #2 {
  %2 = alloca ptr, align 8
  store ptr %0, ptr %2, align 8, !tbaa !13
  %3 = load ptr, ptr %2, align 8, !tbaa !13
  %4 = getelementptr inbounds nuw %struct.Wlc_Ntk_t_, ptr %3, i32 0, i32 2
  %5 = call i32 @Vec_IntSize(ptr noundef %4)
  ret i32 %5
}

; Function Attrs: nounwind uwtable
define void @Wlc_NtkPrintNtk(ptr noundef %0) #0 {
  %2 = alloca ptr, align 8
  %3 = alloca i32, align 4
  %4 = alloca ptr, align 8
  store ptr %0, ptr %2, align 8, !tbaa !13
  call void @llvm.lifetime.start.p0(i64 4, ptr %3) #13
  call void @llvm.lifetime.start.p0(i64 8, ptr %4) #13
  call void (i32, ptr, ...) @Abc_Print(i32 noundef 1, ptr noundef @.str)
  store i32 0, ptr %3, align 4, !tbaa !15
  br label %5

5:                                                ; preds = %22, %1
  %6 = load i32, ptr %3, align 4, !tbaa !15
  %7 = load ptr, ptr %2, align 8, !tbaa !13
  %8 = call i32 @Wlc_NtkPiNum(ptr noundef %7)
  %9 = icmp slt i32 %6, %8
  br i1 %9, label %10, label %14

10:                                               ; preds = %5
  %11 = load ptr, ptr %2, align 8, !tbaa !13
  %12 = load i32, ptr %3, align 4, !tbaa !15
  %13 = call ptr @Wlc_NtkPi(ptr noundef %11, i32 noundef %12)
  store ptr %13, ptr %4, align 8, !tbaa !16
  br label %14

14:                                               ; preds = %10, %5
  %15 = phi i1 [ false, %5 ], [ true, %10 ]
  br i1 %15, label %16, label %25

16:                                               ; preds = %14
  %17 = load ptr, ptr %2, align 8, !tbaa !13
  %18 = load ptr, ptr %2, align 8, !tbaa !13
  %19 = load ptr, ptr %4, align 8, !tbaa !16
  %20 = call i32 @Wlc_ObjId(ptr noundef %18, ptr noundef %19)
  %21 = call ptr @Wlc_ObjName(ptr noundef %17, i32 noundef %20)
  call void (i32, ptr, ...) @Abc_Print(i32 noundef 1, ptr noundef @.str.1, ptr noundef %21)
  br label %22

22:                                               ; preds = %16
  %23 = load i32, ptr %3, align 4, !tbaa !15
  %24 = add nsw i32 %23, 1
  store i32 %24, ptr %3, align 4, !tbaa !15
  br label %5, !llvm.loop !18

25:                                               ; preds = %14
  call void (i32, ptr, ...) @Abc_Print(i32 noundef 1, ptr noundef @.str.2)
  call void (i32, ptr, ...) @Abc_Print(i32 noundef 1, ptr noundef @.str.3)
  store i32 0, ptr %3, align 4, !tbaa !15
  br label %26

26:                                               ; preds = %43, %25
  %27 = load i32, ptr %3, align 4, !tbaa !15
  %28 = load ptr, ptr %2, align 8, !tbaa !13
  %29 = call i32 @Wlc_NtkPoNum(ptr noundef %28)
  %30 = icmp slt i32 %27, %29
  br i1 %30, label %31, label %35

31:                                               ; preds = %26
  %32 = load ptr, ptr %2, align 8, !tbaa !13
  %33 = load i32, ptr %3, align 4, !tbaa !15
  %34 = call ptr @Wlc_NtkPo(ptr noundef %32, i32 noundef %33)
  store ptr %34, ptr %4, align 8, !tbaa !16
  br label %35

35:                                               ; preds = %31, %26
  %36 = phi i1 [ false, %26 ], [ true, %31 ]
  br i1 %36, label %37, label %46

37:                                               ; preds = %35
  %38 = load ptr, ptr %2, align 8, !tbaa !13
  %39 = load ptr, ptr %2, align 8, !tbaa !13
  %40 = load ptr, ptr %4, align 8, !tbaa !16
  %41 = call i32 @Wlc_ObjId(ptr noundef %39, ptr noundef %40)
  %42 = call ptr @Wlc_ObjName(ptr noundef %38, i32 noundef %41)
  call void (i32, ptr, ...) @Abc_Print(i32 noundef 1, ptr noundef @.str.1, ptr noundef %42)
  br label %43

43:                                               ; preds = %37
  %44 = load i32, ptr %3, align 4, !tbaa !15
  %45 = add nsw i32 %44, 1
  store i32 %45, ptr %3, align 4, !tbaa !15
  br label %26, !llvm.loop !20

46:                                               ; preds = %35
  call void (i32, ptr, ...) @Abc_Print(i32 noundef 1, ptr noundef @.str.2)
  call void (i32, ptr, ...) @Abc_Print(i32 noundef 1, ptr noundef @.str.4)
  store i32 0, ptr %3, align 4, !tbaa !15
  br label %47

47:                                               ; preds = %76, %46
  %48 = load i32, ptr %3, align 4, !tbaa !15
  %49 = load ptr, ptr %2, align 8, !tbaa !13
  %50 = call i32 @Wlc_NtkCiNum(ptr noundef %49)
  %51 = icmp slt i32 %48, %50
  br i1 %51, label %52, label %56

52:                                               ; preds = %47
  %53 = load ptr, ptr %2, align 8, !tbaa !13
  %54 = load i32, ptr %3, align 4, !tbaa !15
  %55 = call ptr @Wlc_NtkCi(ptr noundef %53, i32 noundef %54)
  store ptr %55, ptr %4, align 8, !tbaa !16
  br label %56

56:                                               ; preds = %52, %47
  %57 = phi i1 [ false, %47 ], [ true, %52 ]
  br i1 %57, label %58, label %79

58:                                               ; preds = %56
  %59 = load ptr, ptr %4, align 8, !tbaa !16
  %60 = call i32 @Wlc_ObjIsPi(ptr noundef %59)
  %61 = icmp ne i32 %60, 0
  br i1 %61, label %75, label %62

62:                                               ; preds = %58
  %63 = load ptr, ptr %2, align 8, !tbaa !13
  %64 = load ptr, ptr %2, align 8, !tbaa !13
  %65 = load ptr, ptr %4, align 8, !tbaa !16
  %66 = call i32 @Wlc_ObjId(ptr noundef %64, ptr noundef %65)
  %67 = call ptr @Wlc_ObjName(ptr noundef %63, i32 noundef %66)
  %68 = load ptr, ptr %2, align 8, !tbaa !13
  %69 = load ptr, ptr %2, align 8, !tbaa !13
  %70 = load ptr, ptr %2, align 8, !tbaa !13
  %71 = load ptr, ptr %4, align 8, !tbaa !16
  %72 = call ptr @Wlc_ObjFo2Fi(ptr noundef %70, ptr noundef %71)
  %73 = call i32 @Wlc_ObjId(ptr noundef %69, ptr noundef %72)
  %74 = call ptr @Wlc_ObjName(ptr noundef %68, i32 noundef %73)
  call void (i32, ptr, ...) @Abc_Print(i32 noundef 1, ptr noundef @.str.5, ptr noundef %67, ptr noundef %74)
  br label %75

75:                                               ; preds = %62, %58
  br label %76

76:                                               ; preds = %75
  %77 = load i32, ptr %3, align 4, !tbaa !15
  %78 = add nsw i32 %77, 1
  store i32 %78, ptr %3, align 4, !tbaa !15
  br label %47, !llvm.loop !21

79:                                               ; preds = %56
  call void (i32, ptr, ...) @Abc_Print(i32 noundef 1, ptr noundef @.str.2)
  call void (i32, ptr, ...) @Abc_Print(i32 noundef 1, ptr noundef @.str.6)
  store i32 1, ptr %3, align 4, !tbaa !15
  br label %80

80:                                               ; preds = %99, %79
  %81 = load i32, ptr %3, align 4, !tbaa !15
  %82 = load ptr, ptr %2, align 8, !tbaa !13
  %83 = call i32 @Wlc_NtkObjNumMax(ptr noundef %82)
  %84 = icmp slt i32 %81, %83
  br i1 %84, label %85, label %89

85:                                               ; preds = %80
  %86 = load ptr, ptr %2, align 8, !tbaa !13
  %87 = load i32, ptr %3, align 4, !tbaa !15
  %88 = call ptr @Wlc_NtkObj(ptr noundef %86, i32 noundef %87)
  store ptr %88, ptr %4, align 8, !tbaa !16
  br label %89

89:                                               ; preds = %85, %80
  %90 = phi i1 [ false, %80 ], [ true, %85 ]
  br i1 %90, label %91, label %102

91:                                               ; preds = %89
  %92 = load ptr, ptr %4, align 8, !tbaa !16
  %93 = call i32 @Wlc_ObjIsCi(ptr noundef %92)
  %94 = icmp ne i32 %93, 0
  br i1 %94, label %98, label %95

95:                                               ; preds = %91
  %96 = load ptr, ptr %2, align 8, !tbaa !13
  %97 = load ptr, ptr %4, align 8, !tbaa !16
  call void @Wlc_NtkPrintNode(ptr noundef %96, ptr noundef %97)
  br label %98

98:                                               ; preds = %95, %91
  br label %99

99:                                               ; preds = %98
  %100 = load i32, ptr %3, align 4, !tbaa !15
  %101 = add nsw i32 %100, 1
  store i32 %101, ptr %3, align 4, !tbaa !15
  br label %80, !llvm.loop !22

102:                                              ; preds = %89
  call void @llvm.lifetime.end.p0(i64 8, ptr %4) #13
  call void @llvm.lifetime.end.p0(i64 4, ptr %3) #13
  ret void
}