; Function Attrs: nounwind uwtable
define void @Wlc_NtkPrintNtk(ptr noundef %0) local_unnamed_addr #1 {
  tail call void (i32, ptr, ...) @Abc_Print(i32 poison, ptr noundef nonnull @.str)
  %2 = getelementptr i8, ptr %0, i64 20
  %.val61 = load i32, ptr %2, align 4, !tbaa !11
  %3 = icmp sgt i32 %.val61, 0
  br i1 %3, label %.lr.ph, label %.critedge

.lr.ph:                                           ; preds = %1
  %4 = getelementptr i8, ptr %0, i64 24
  br label %5

5:                                                ; preds = %.lr.ph, %5
  %indvars.iv = phi i64 [ 0, %.lr.ph ], [ %indvars.iv.next, %5 ]
  %.val44 = load ptr, ptr %4, align 8, !tbaa !14
  %6 = getelementptr inbounds nuw i32, ptr %.val44, i64 %indvars.iv
  %7 = load i32, ptr %6, align 4, !tbaa !15
  %8 = tail call ptr @Wlc_ObjName(ptr noundef nonnull %0, i32 noundef %7) #24
  tail call void (i32, ptr, ...) @Abc_Print(i32 poison, ptr noundef nonnull @.str.1, ptr noundef %8)
  %indvars.iv.next = add nuw nsw i64 %indvars.iv, 1
  %.val = load i32, ptr %2, align 4, !tbaa !11
  %9 = sext i32 %.val to i64
  %10 = icmp slt i64 %indvars.iv.next, %9
  br i1 %10, label %5, label %.critedge, !llvm.loop !16

.critedge:                                        ; preds = %5, %1
  tail call void (i32, ptr, ...) @Abc_Print(i32 poison, ptr noundef nonnull @.str.2)
  tail call void (i32, ptr, ...) @Abc_Print(i32 poison, ptr noundef nonnull @.str.3)
  %11 = getelementptr i8, ptr %0, i64 36
  %.val5063 = load i32, ptr %11, align 4, !tbaa !11
  %12 = icmp sgt i32 %.val5063, 0
  br i1 %12, label %.lr.ph65, label %.critedge2

.lr.ph65:                                         ; preds = %.critedge
  %13 = getelementptr i8, ptr %0, i64 40
  br label %14

14:                                               ; preds = %.lr.ph65, %14
  %indvars.iv73 = phi i64 [ 0, %.lr.ph65 ], [ %indvars.iv.next74, %14 ]
  %.val51 = load ptr, ptr %13, align 8, !tbaa !14
  %15 = getelementptr inbounds nuw i32, ptr %.val51, i64 %indvars.iv73
  %16 = load i32, ptr %15, align 4, !tbaa !15
  %17 = tail call ptr @Wlc_ObjName(ptr noundef nonnull %0, i32 noundef %16) #24
  tail call void (i32, ptr, ...) @Abc_Print(i32 poison, ptr noundef nonnull @.str.1, ptr noundef %17)
  %indvars.iv.next74 = add nuw nsw i64 %indvars.iv73, 1
  %.val50 = load i32, ptr %11, align 4, !tbaa !11
  %18 = sext i32 %.val50 to i64
  %19 = icmp slt i64 %indvars.iv.next74, %18
  br i1 %19, label %14, label %.critedge2, !llvm.loop !18

.critedge2:                                       ; preds = %14, %.critedge
  tail call void (i32, ptr, ...) @Abc_Print(i32 poison, ptr noundef nonnull @.str.2)
  tail call void (i32, ptr, ...) @Abc_Print(i32 poison, ptr noundef nonnull @.str.4)
  %20 = getelementptr i8, ptr %0, i64 52
  %.val5366 = load i32, ptr %20, align 4, !tbaa !11
  %21 = icmp sgt i32 %.val5366, 0
  br i1 %21, label %.lr.ph68, label %.critedge4

.lr.ph68:                                         ; preds = %.critedge2
  %22 = getelementptr i8, ptr %0, i64 56
  %23 = getelementptr i8, ptr %0, i64 640
  %24 = getelementptr i8, ptr %0, i64 72
  br label %25

25:                                               ; preds = %.lr.ph68, %40
  %.val5382 = phi i32 [ %.val5366, %.lr.ph68 ], [ %.val53, %40 ]
  %indvars.iv76 = phi i64 [ 0, %.lr.ph68 ], [ %indvars.iv.next77, %40 ]
  %.val54 = load ptr, ptr %22, align 8, !tbaa !14
  %.val55 = load ptr, ptr %23, align 8, !tbaa !19
  %26 = getelementptr inbounds nuw i32, ptr %.val54, i64 %indvars.iv76
  %27 = load i32, ptr %26, align 4, !tbaa !15
  %28 = sext i32 %27 to i64
  %29 = getelementptr inbounds %struct.Wlc_Obj_t_, ptr %.val55, i64 %28
  %.val56 = load i16, ptr %29, align 8
  %30 = and i16 %.val56, 63
  %.not = icmp eq i16 %30, 1
  br i1 %.not, label %40, label %31

31:                                               ; preds = %25
  %32 = tail call ptr @Wlc_ObjName(ptr noundef nonnull %0, i32 noundef %27) #24
  %33 = getelementptr i8, ptr %29, i64 20
  %.val57 = load i32, ptr %33, align 4, !tbaa !28
  %.val4.i = load i32, ptr %11, align 4, !tbaa !11
  %34 = add nsw i32 %.val4.i, %.val57
  %.val.i = load i32, ptr %2, align 4, !tbaa !11
  %35 = sub i32 %34, %.val.i
  %.val6.i = load ptr, ptr %24, align 8, !tbaa !14
  %36 = sext i32 %35 to i64
  %37 = getelementptr inbounds i32, ptr %.val6.i, i64 %36
  %38 = load i32, ptr %37, align 4, !tbaa !15
  %39 = tail call ptr @Wlc_ObjName(ptr noundef nonnull %0, i32 noundef %38) #24
  tail call void (i32, ptr, ...) @Abc_Print(i32 poison, ptr noundef nonnull @.str.5, ptr noundef %32, ptr noundef %39)
  %.val53.pre = load i32, ptr %20, align 4, !tbaa !11
  br label %40

40:                                               ; preds = %25, %31
  %.val53 = phi i32 [ %.val5382, %25 ], [ %.val53.pre, %31 ]
  %indvars.iv.next77 = add nuw nsw i64 %indvars.iv76, 1
  %41 = sext i32 %.val53 to i64
  %42 = icmp slt i64 %indvars.iv.next77, %41
  br i1 %42, label %25, label %.critedge4, !llvm.loop !29

.critedge4:                                       ; preds = %40, %.critedge2
  tail call void (i32, ptr, ...) @Abc_Print(i32 poison, ptr noundef nonnull @.str.2)
  tail call void (i32, ptr, ...) @Abc_Print(i32 poison, ptr noundef nonnull @.str.6)
  %43 = getelementptr i8, ptr %0, i64 648
  %.val5869 = load i32, ptr %43, align 8, !tbaa !30
  %44 = icmp sgt i32 %.val5869, 1
  br i1 %44, label %.lr.ph71, label %.critedge6

.lr.ph71:                                         ; preds = %.critedge4
  %45 = getelementptr i8, ptr %0, i64 640
  br label %46

46:                                               ; preds = %.lr.ph71, %50
  %.val5884 = phi i32 [ %.val5869, %.lr.ph71 ], [ %.val58, %50 ]
  %indvars.iv79 = phi i64 [ 1, %.lr.ph71 ], [ %indvars.iv.next80, %50 ]
  %.val43 = load ptr, ptr %45, align 8, !tbaa !19
  %47 = getelementptr inbounds nuw %struct.Wlc_Obj_t_, ptr %.val43, i64 %indvars.iv79
  %.val59 = load i16, ptr %47, align 8
  %48 = and i16 %.val59, 61
  %narrow.i.not = icmp eq i16 %48, 1
  br i1 %narrow.i.not, label %50, label %49

49:                                               ; preds = %46
  tail call void @Wlc_NtkPrintNode(ptr noundef nonnull %0, ptr noundef nonnull %47) #24
  %.val58.pre = load i32, ptr %43, align 8, !tbaa !30
  br label %50

50:                                               ; preds = %46, %49
  %.val58 = phi i32 [ %.val5884, %46 ], [ %.val58.pre, %49 ]
  %indvars.iv.next80 = add nuw nsw i64 %indvars.iv79, 1
  %51 = sext i32 %.val58 to i64
  %52 = icmp slt i64 %indvars.iv.next80, %51
  br i1 %52, label %46, label %.critedge6, !llvm.loop !31

.critedge6:                                       ; preds = %50, %.critedge4
  ret void
}